; Function Attrs: mustprogress uwtable
define dso_local void @_ZN4Luau18findBlockedTypesInEPNS_12AstExprTableENS_7NotNullINS_12DenseHashMapIPKNS_7AstExprEPKNS_4TypeENS_16DenseHashPointerESt8equal_toIS6_EEEEE(ptr dead_on_unwind noalias writable sret(%"class.std::vector.53") align 8 initializes((0, 24)) %0, ptr noundef %1, ptr %2) local_unnamed_addr #3 personality ptr @__gxx_personality_v0 {
  %4 = alloca %"class.Luau::BlockedTypeInLiteralVisitor", align 8
  tail call void @llvm.memset.p0.i64(ptr noundef nonnull align 8 dereferenceable(24) %0, i8 0, i64 24, i1 false)
  call void @llvm.lifetime.start.p0(i64 24, ptr nonnull %4) #26
  store ptr getelementptr inbounds nuw inrange(-16, 496) (i8, ptr @_ZTVN4Luau27BlockedTypeInLiteralVisitorE, i64 16), ptr %4, align 8, !tbaa !198
  %5 = getelementptr inbounds nuw i8, ptr %4, i64 8
  store ptr %2, ptr %5, align 8, !tbaa !261
  %6 = getelementptr inbounds nuw i8, ptr %4, i64 16
  store ptr %0, ptr %6, align 8, !tbaa !263
  %7 = load ptr, ptr %1, align 8, !tbaa !198
  %8 = load ptr, ptr %7, align 8
  invoke void %8(ptr noundef nonnull align 8 dereferenceable(48) %1, ptr noundef nonnull %4)
          to label %9 unwind label %10

9:                                                ; preds = %3
  call void @llvm.lifetime.end.p0(i64 24, ptr nonnull %4) #26
  ret void

10:                                               ; preds = %3
  %11 = landingpad { ptr, i32 }
          cleanup
  call void @llvm.lifetime.end.p0(i64 24, ptr nonnull %4) #26
  %12 = load ptr, ptr %0, align 8, !tbaa !46
  %.not.i.i.i = icmp eq ptr %12, null
  br i1 %.not.i.i.i, label %_ZNSt6vectorIPKN4Luau4TypeESaIS3_EED2Ev.exit, label %13

13:                                               ; preds = %10
  %14 = getelementptr inbounds nuw i8, ptr %0, i64 16
  %15 = load ptr, ptr %14, align 8, !tbaa !220
  %16 = ptrtoint ptr %15 to i64
  %17 = ptrtoint ptr %12 to i64
  %18 = sub i64 %16, %17
  call void @_ZdlPvm(ptr noundef nonnull %12, i64 noundef %18) #25
  br label %_ZNSt6vectorIPKN4Luau4TypeESaIS3_EED2Ev.exit

_ZNSt6vectorIPKN4Luau4TypeESaIS3_EED2Ev.exit:     ; preds = %10, %13
  resume { ptr, i32 } %11
}